; ModuleID = '9/530.c'
source_filename = "9/530.c"
target datalayout = "e-m:e-p270:32:32-p271:32:32-p272:64:64-i64:64-f80:128-n8:16:32:64-S128"
target triple = "x86_64-pc-linux-gnu"

@.str = private unnamed_addr constant [3 x i8] c"%d\00", align 1
@.str.1 = private unnamed_addr constant [6 x i8] c"%s %d\00", align 1
@.str.2 = private unnamed_addr constant [4 x i8] c"%s\0A\00", align 1

; Function Attrs: noinline nounwind uwtable
define dso_local i32 @main() #0 {
  %1 = alloca i32, align 4
  %2 = alloca i32, align 4
  %3 = alloca i32, align 4
  %4 = alloca i32, align 4
  %5 = alloca i32, align 4
  %6 = alloca i32, align 4
  %7 = alloca i32, align 4
  %8 = alloca i32, align 4
  %9 = alloca i8*, align 8
  %10 = alloca i64, align 8
  %11 = alloca i64, align 8
  %12 = alloca i64, align 8
  %13 = alloca i64, align 8
  %14 = alloca i64, align 8
  %15 = alloca i64, align 8
  %16 = alloca [100 x i8], align 16
  store i32 0, i32* %1, align 4
  %17 = call i32 (i8*, ...) @__isoc99_scanf(i8* getelementptr inbounds ([3 x i8], [3 x i8]* @.str, i64 0, i64 0), i32* %2)
  %18 = load i32, i32* %2, align 4
  %19 = zext i32 %18 to i64
  %20 = call i8* @llvm.stacksave()
  store i8* %20, i8** %9, align 8
  %21 = alloca i32, i64 %19, align 16
  store i64 %19, i64* %10, align 8
  %22 = load i32, i32* %2, align 4
  %23 = zext i32 %22 to i64
  %24 = alloca i32, i64 %23, align 16
  store i64 %23, i64* %11, align 8
  %25 = load i32, i32* %2, align 4
  %26 = zext i32 %25 to i64
  %27 = alloca i32, i64 %26, align 16
  store i64 %26, i64* %12, align 8
  %28 = load i32, i32* %2, align 4
  %29 = zext i32 %28 to i64
  %30 = alloca [100 x i8], i64 %29, align 16
  store i64 %29, i64* %13, align 8
  %31 = load i32, i32* %2, align 4
  %32 = zext i32 %31 to i64
  %33 = alloca [100 x i8], i64 %32, align 16
  store i64 %32, i64* %14, align 8
  %34 = load i32, i32* %2, align 4
  %35 = zext i32 %34 to i64
  %36 = alloca [100 x i8], i64 %35, align 16
  store i64 %35, i64* %15, align 8
  store i32 0, i32* %3, align 4
  br label %37

37:                                               ; preds = %50, %0
  %38 = load i32, i32* %3, align 4
  %39 = load i32, i32* %2, align 4
  %40 = icmp slt i32 %38, %39
  br i1 %40, label %41, label %53

41:                                               ; preds = %37
  %42 = load i32, i32* %3, align 4
  %43 = sext i32 %42 to i64
  %44 = getelementptr inbounds [100 x i8], [100 x i8]* %30, i64 %43
  %45 = getelementptr inbounds [100 x i8], [100 x i8]* %44, i64 0, i64 0
  %46 = load i32, i32* %3, align 4
  %47 = sext i32 %46 to i64
  %48 = getelementptr inbounds i32, i32* %21, i64 %47
  %49 = call i32 (i8*, ...) @__isoc99_scanf(i8* getelementptr inbounds ([6 x i8], [6 x i8]* @.str.1, i64 0, i64 0), i8* %45, i32* %48)
  br label %50

50:                                               ; preds = %41
  %51 = load i32, i32* %3, align 4
  %52 = add nsw i32 %51, 1
  store i32 %52, i32* %3, align 4
  br label %37

53:                                               ; preds = %37
  store i32 0, i32* %4, align 4
  store i32 0, i32* %5, align 4
  store i32 0, i32* %3, align 4
  br label %54

54:                                               ; preds = %96, %53
  %55 = load i32, i32* %3, align 4
  %56 = load i32, i32* %2, align 4
  %57 = icmp slt i32 %55, %56
  br i1 %57, label %58, label %99

58:                                               ; preds = %54
  %59 = load i32, i32* %3, align 4
  %60 = sext i32 %59 to i64
  %61 = getelementptr inbounds i32, i32* %21, i64 %60
  %62 = load i32, i32* %61, align 4
  %63 = icmp sge i32 %62, 60
  br i1 %63, label %64, label %83

64:                                               ; preds = %58
  %65 = load i32, i32* %3, align 4
  %66 = sext i32 %65 to i64
  %67 = getelementptr inbounds i32, i32* %21, i64 %66
  %68 = load i32, i32* %67, align 4
  %69 = load i32, i32* %4, align 4
  %70 = sext i32 %69 to i64
  %71 = getelementptr inbounds i32, i32* %24, i64 %70
  store i32 %68, i32* %71, align 4
  %72 = load i32, i32* %4, align 4
  %73 = sext i32 %72 to i64
  %74 = getelementptr inbounds [100 x i8], [100 x i8]* %33, i64 %73
  %75 = getelementptr inbounds [100 x i8], [100 x i8]* %74, i64 0, i64 0
  %76 = load i32, i32* %3, align 4
  %77 = sext i32 %76 to i64
  %78 = getelementptr inbounds [100 x i8], [100 x i8]* %30, i64 %77
  %79 = getelementptr inbounds [100 x i8], [100 x i8]* %78, i64 0, i64 0
  %80 = call i8* @strcpy(i8* %75, i8* %79) #2
  %81 = load i32, i32* %4, align 4
  %82 = add nsw i32 %81, 1
  store i32 %82, i32* %4, align 4
  br label %95

83:                                               ; preds = %58
  %84 = load i32, i32* %5, align 4
  %85 = sext i32 %84 to i64
  %86 = getelementptr inbounds [100 x i8], [100 x i8]* %36, i64 %85
  %87 = getelementptr inbounds [100 x i8], [100 x i8]* %86, i64 0, i64 0
  %88 = load i32, i32* %3, align 4
  %89 = sext i32 %88 to i64
  %90 = getelementptr inbounds [100 x i8], [100 x i8]* %30, i64 %89
  %91 = getelementptr inbounds [100 x i8], [100 x i8]* %90, i64 0, i64 0
  %92 = call i8* @strcpy(i8* %87, i8* %91) #2
  %93 = load i32, i32* %5, align 4
  %94 = add nsw i32 %93, 1
  store i32 %94, i32* %5, align 4
  br label %95

95:                                               ; preds = %83, %64
  br label %96

96:                                               ; preds = %95
  %97 = load i32, i32* %3, align 4
  %98 = add nsw i32 %97, 1
  store i32 %98, i32* %3, align 4
  br label %54

99:                                               ; preds = %54
  store i32 0, i32* %6, align 4
  br label %100

100:                                              ; preds = %170, %99
  %101 = load i32, i32* %6, align 4
  %102 = load i32, i32* %4, align 4
  %103 = sub nsw i32 %102, 1
  %104 = icmp slt i32 %101, %103
  br i1 %104, label %105, label %173

105:                                              ; preds = %100
  store i32 0, i32* %7, align 4
  br label %106

106:                                              ; preds = %166, %105
  %107 = load i32, i32* %7, align 4
  %108 = load i32, i32* %4, align 4
  %109 = sub nsw i32 %108, 1
  %110 = load i32, i32* %6, align 4
  %111 = sub nsw i32 %109, %110
  %112 = icmp slt i32 %107, %111
  br i1 %112, label %113, label %169

113:                                              ; preds = %106
  %114 = load i32, i32* %7, align 4
  %115 = sext i32 %114 to i64
  %116 = getelementptr inbounds i32, i32* %24, i64 %115
  %117 = load i32, i32* %116, align 4
  %118 = load i32, i32* %7, align 4
  %119 = add nsw i32 %118, 1
  %120 = sext i32 %119 to i64
  %121 = getelementptr inbounds i32, i32* %24, i64 %120
  %122 = load i32, i32* %121, align 4
  %123 = icmp slt i32 %117, %122
  br i1 %123, label %124, label %165

124:                                              ; preds = %113
  %125 = load i32, i32* %7, align 4
  %126 = add nsw i32 %125, 1
  %127 = sext i32 %126 to i64
  %128 = getelementptr inbounds i32, i32* %24, i64 %127
  %129 = load i32, i32* %128, align 4
  store i32 %129, i32* %8, align 4
  %130 = load i32, i32* %7, align 4
  %131 = sext i32 %130 to i64
  %132 = getelementptr inbounds i32, i32* %24, i64 %131
  %133 = load i32, i32* %132, align 4
  %134 = load i32, i32* %7, align 4
  %135 = add nsw i32 %134, 1
  %136 = sext i32 %135 to i64
  %137 = getelementptr inbounds i32, i32* %24, i64 %136
  store i32 %133, i32* %137, align 4
  %138 = load i32, i32* %8, align 4
  %139 = load i32, i32* %7, align 4
  %140 = sext i32 %139 to i64
  %141 = getelementptr inbounds i32, i32* %24, i64 %140
  store i32 %138, i32* %141, align 4
  %142 = getelementptr inbounds [100 x i8], [100 x i8]* %16, i64 0, i64 0
  %143 = load i32, i32* %7, align 4
  %144 = add nsw i32 %143, 1
  %145 = sext i32 %144 to i64
  %146 = getelementptr inbounds [100 x i8], [100 x i8]* %33, i64 %145
  %147 = getelementptr inbounds [100 x i8], [100 x i8]* %146, i64 0, i64 0
  %148 = call i8* @strcpy(i8* %142, i8* %147) #2
  %149 = load i32, i32* %7, align 4
  %150 = add nsw i32 %149, 1
  %151 = sext i32 %150 to i64
  %152 = getelementptr inbounds [100 x i8], [100 x i8]* %33, i64 %151
  %153 = getelementptr inbounds [100 x i8], [100 x i8]* %152, i64 0, i64 0
  %154 = load i32, i32* %7, align 4
  %155 = sext i32 %154 to i64
  %156 = getelementptr inbounds [100 x i8], [100 x i8]* %33, i64 %155
  %157 = getelementptr inbounds [100 x i8], [100 x i8]* %156, i64 0, i64 0
  %158 = call i8* @strcpy(i8* %153, i8* %157) #2
  %159 = load i32, i32* %7, align 4
  %160 = sext i32 %159 to i64
  %161 = getelementptr inbounds [100 x i8], [100 x i8]* %33, i64 %160
  %162 = getelementptr inbounds [100 x i8], [100 x i8]* %161, i64 0, i64 0
  %163 = getelementptr inbounds [100 x i8], [100 x i8]* %16, i64 0, i64 0
  %164 = call i8* @strcpy(i8* %162, i8* %163) #2
  br label %165

165:                                              ; preds = %124, %113
  br label %166

166:                                              ; preds = %165
  %167 = load i32, i32* %7, align 4
  %168 = add nsw i32 %167, 1
  store i32 %168, i32* %7, align 4
  br label %106

169:                                              ; preds = %106
  br label %170

170:                                              ; preds = %169
  %171 = load i32, i32* %6, align 4
  %172 = add nsw i32 %171, 1
  store i32 %172, i32* %6, align 4
  br label %100

173:                                              ; preds = %100
  store i32 0, i32* %3, align 4
  br label %174

174:                                              ; preds = %184, %173
  %175 = load i32, i32* %3, align 4
  %176 = load i32, i32* %4, align 4
  %177 = icmp slt i32 %175, %176
  br i1 %177, label %178, label %187

178:                                              ; preds = %174
  %179 = load i32, i32* %3, align 4
  %180 = sext i32 %179 to i64
  %181 = getelementptr inbounds [100 x i8], [100 x i8]* %33, i64 %180
  %182 = getelementptr inbounds [100 x i8], [100 x i8]* %181, i64 0, i64 0
  %183 = call i32 (i8*, ...) @printf(i8* getelementptr inbounds ([4 x i8], [4 x i8]* @.str.2, i64 0, i64 0), i8* %182)
  br label %184

184:                                              ; preds = %178
  %185 = load i32, i32* %3, align 4
  %186 = add nsw i32 %185, 1
  store i32 %186, i32* %3, align 4
  br label %174

187:                                              ; preds = %174
  store i32 0, i32* %3, align 4
  br label %188

188:                                              ; preds = %198, %187
  %189 = load i32, i32* %3, align 4
  %190 = load i32, i32* %5, align 4
  %191 = icmp slt i32 %189, %190
  br i1 %191, label %192, label %201

192:                                              ; preds = %188
  %193 = load i32, i32* %3, align 4
  %194 = sext i32 %193 to i64
  %195 = getelementptr inbounds [100 x i8], [100 x i8]* %36, i64 %194
  %196 = getelementptr inbounds [100 x i8], [100 x i8]* %195, i64 0, i64 0
  %197 = call i32 (i8*, ...) @printf(i8* getelementptr inbounds ([4 x i8], [4 x i8]* @.str.2, i64 0, i64 0), i8* %196)
  br label %198

198:                                              ; preds = %192
  %199 = load i32, i32* %3, align 4
  %200 = add nsw i32 %199, 1
  store i32 %200, i32* %3, align 4
  br label %188

201:                                              ; preds = %188
  %202 = call i32 @getchar()
  %203 = call i32 @getchar()
  %204 = load i8*, i8** %9, align 8
  call void @llvm.stackrestore(i8* %204)
  %205 = load i32, i32* %1, align 4
  ret i32 %205
}

declare dso_local i32 @__isoc99_scanf(i8*, ...) #1

; Function Attrs: nounwind
declare i8* @llvm.stacksave() #2

; Function Attrs: nounwind
declare dso_local i8* @strcpy(i8*, i8*) #3

declare dso_local i32 @printf(i8*, ...) #1

declare dso_local i32 @getchar() #1

; Function Attrs: nounwind
declare void @llvm.stackrestore(i8*) #2


!llvm.module.flags = !{!0}
!llvm.ident = !{!1}

!0 = !{i32 1, !"wchar_size", i32 4}
!1 = !{!"clang version 10.0.0-4ubuntu1 "}
